target datalayout = "e-m:e-p270:32:32-p271:32:32-p272:64:64-i64:64-i128:128-f80:128-n8:16:32:64-S128"
target triple = "x86_64-pc-linux-gnu"

%struct.AVCodecContext = type { ptr, i32, i32, ptr, i32, i32, ptr, ptr, ptr, i64, i32, i32, ptr, i32, %struct.AVRational, %struct.AVRational, %struct.AVRational, i32, i32, i32, i32, i32, %struct.AVRational, i32, i32, i32, i32, i32, i32, i32, i32, i32, i32, i32, ptr, ptr, i32, float, float, float, float, float, float, float, float, float, i32, i32, i32, i32, i32, i32, i32, i32, i32, i32, i32, i32, ptr, ptr, ptr, i32, i32, i32, i32, i32, i32, i32, i32, i32, i32, %struct.AVChannelLayout, i32, i32, i32, i32, i32, i32, i32, i32, ptr, i32, i32, i32, float, float, i32, i32, i32, i32, i32, ptr, i64, i64, float, float, i32, i32, ptr, ptr, i32, i32, i32, i32, i32, ptr, ptr, ptr, ptr, i32, i32, [8 x i64], i32, i32, i32, i32, i32, i32, i32, ptr, ptr, i32, i32, i32, i32, i32, i32, i32, i32, i32, i32, ptr, ptr, i32, i32, ptr, ptr, ptr, ptr, i32, i32, i64, i32, i32, i64, ptr, i64, ptr, i32, ptr, i32 }
%struct.AVRational = type { i32, i32 }
%struct.AVChannelLayout = type { i32, i32, %union.anon.1, ptr }
%union.anon.1 = type { i64 }
%struct.VAAPIEncodeContext = type { %struct.FFHWBaseEncodeContext, ptr, i32, i32, i32, i32, i32, i32, ptr, ptr, i32, i32, i32, i32, i32, i32, [4 x %struct._VAConfigAttrib], i32, i32, i32, ptr, ptr, [4 x i32], [4 x ptr], [4 x i64], i32, %struct._VAEncMiscParameterRateControl, %struct._VAEncMiscParameterHRD, %struct._VAEncMiscParameterFrameRate, %struct._VAEncMiscParameterBufferMaxFrameSize, %struct._VAEncMiscParameterBufferQualityLevel, ptr, ptr, i32, i32, i32, i32, i32, i32, [20 x i32], [22 x i32], [21 x i32], [23 x i32], i32, i32, ptr, i32, i32 }
%struct.FFHWBaseEncodeContext = type { ptr, ptr, ptr, i32, i32, i32, i32, i32, i32, ptr, ptr, ptr, ptr, ptr, ptr, ptr, ptr, [2 x ptr], i32, i64, i64, i64, i64, i64, i64, i64, [112 x i64], i32, i32, i32, i32, i32, i32, i32, i32, i32, i32, i32, i32, i32, i32, i32, i32, ptr, i32, ptr, i32, ptr }
%struct._VAConfigAttrib = type { i32, i32 }
%struct._VAEncMiscParameterRateControl = type { i32, i32, i32, i32, i32, i32, %union.anon.2, i32, i32, i32, i32, [4 x i32] }
%union.anon.2 = type { %struct.anon }
%struct.anon = type { i32 }
%struct._VAEncMiscParameterHRD = type { i32, i32, [4 x i32] }
%struct._VAEncMiscParameterFrameRate = type { i32, %union.anon.3, [4 x i32] }
%union.anon.3 = type { %struct.anon.4 }
%struct.anon.4 = type { i32 }
%struct._VAEncMiscParameterBufferMaxFrameSize = type { i32, i32, [4 x i32] }
%struct._VAEncMiscParameterBufferQualityLevel = type { i32, [4 x i32] }
%struct.VAAPIEncodeRCMode = type { i32, ptr, i32, i32, i32, i32, i32, i32 }
%struct.VAAPIEncodeVP9Context = type { %struct.VAAPIEncodeContext, i32, i32, i32, i32, i32 }

; Function Attrs: alwaysinline nounwind willreturn memory(none) uwtable
define internal i32 @av_clip_c(i32 noundef %0, i32 noundef %1, i32 noundef %2) #4 {
  %4 = alloca i32, align 4
  %5 = alloca i32, align 4
  %6 = alloca i32, align 4
  %7 = alloca i32, align 4
  store i32 %0, ptr %5, align 4, !tbaa !110
  store i32 %1, ptr %6, align 4, !tbaa !110
  store i32 %2, ptr %7, align 4, !tbaa !110
  %8 = load i32, ptr %5, align 4, !tbaa !110
  %9 = load i32, ptr %6, align 4, !tbaa !110
  %10 = icmp slt i32 %8, %9
  br i1 %10, label %11, label %13

11:                                               ; preds = %3
  %12 = load i32, ptr %6, align 4, !tbaa !110
  store i32 %12, ptr %4, align 4
  br label %21

13:                                               ; preds = %3
  %14 = load i32, ptr %5, align 4, !tbaa !110
  %15 = load i32, ptr %7, align 4, !tbaa !110
  %16 = icmp sgt i32 %14, %15
  br i1 %16, label %17, label %19

17:                                               ; preds = %13
  %18 = load i32, ptr %7, align 4, !tbaa !110
  store i32 %18, ptr %4, align 4
  br label %21

19:                                               ; preds = %13
  %20 = load i32, ptr %5, align 4, !tbaa !110
  store i32 %20, ptr %4, align 4
  br label %21

21:                                               ; preds = %19, %17, %11
  %22 = load i32, ptr %4, align 4
  ret i32 %22
}

; Function Attrs: cold nounwind optsize uwtable
define internal i32 @vaapi_encode_vp9_configure(ptr noundef %0) #0 {
  %2 = alloca ptr, align 8
  %3 = alloca ptr, align 8
  %4 = alloca ptr, align 8
  store ptr %0, ptr %2, align 8, !tbaa !4
  call void @llvm.lifetime.start.p0(i64 8, ptr %3) #7
  %5 = load ptr, ptr %2, align 8, !tbaa !4
  %6 = getelementptr inbounds nuw %struct.AVCodecContext, ptr %5, i32 0, i32 6
  %7 = load ptr, ptr %6, align 8, !tbaa !9
  store ptr %7, ptr %3, align 8, !tbaa !29
  call void @llvm.lifetime.start.p0(i64 8, ptr %4) #7
  %8 = load ptr, ptr %2, align 8, !tbaa !4
  %9 = getelementptr inbounds nuw %struct.AVCodecContext, ptr %8, i32 0, i32 6
  %10 = load ptr, ptr %9, align 8, !tbaa !9
  store ptr %10, ptr %4, align 8, !tbaa !58
  %11 = load ptr, ptr %3, align 8, !tbaa !29
  %12 = getelementptr inbounds nuw %struct.VAAPIEncodeContext, ptr %11, i32 0, i32 9
  %13 = load ptr, ptr %12, align 8, !tbaa !60
  %14 = getelementptr inbounds nuw %struct.VAAPIEncodeRCMode, ptr %13, i32 0, i32 6
  %15 = load i32, ptr %14, align 8, !tbaa !61
  %16 = icmp ne i32 %15, 0
  br i1 %16, label %17, label %84

17:                                               ; preds = %1
  %18 = load ptr, ptr %3, align 8, !tbaa !29
  %19 = getelementptr inbounds nuw %struct.VAAPIEncodeContext, ptr %18, i32 0, i32 10
  %20 = load i32, ptr %19, align 8, !tbaa !63
  %21 = call i32 @av_clip_c(i32 noundef %20, i32 noundef 0, i32 noundef 255) #8
  %22 = load ptr, ptr %4, align 8, !tbaa !58
  %23 = getelementptr inbounds nuw %struct.VAAPIEncodeVP9Context, ptr %22, i32 0, i32 4
  store i32 %21, ptr %23, align 4, !tbaa !64
  %24 = load ptr, ptr %2, align 8, !tbaa !4
  %25 = getelementptr inbounds nuw %struct.AVCodecContext, ptr %24, i32 0, i32 39
  %26 = load float, ptr %25, align 4, !tbaa !66
  %27 = fpext nsz float %26 to double
  %28 = fcmp nsz ogt double %27, 0.000000e+00
  br i1 %28, label %29, label %47

29:                                               ; preds = %17
  %30 = load ptr, ptr %2, align 8, !tbaa !4
  %31 = getelementptr inbounds nuw %struct.AVCodecContext, ptr %30, i32 0, i32 39
  %32 = load float, ptr %31, align 4, !tbaa !66
  %33 = load ptr, ptr %4, align 8, !tbaa !58
  %34 = getelementptr inbounds nuw %struct.VAAPIEncodeVP9Context, ptr %33, i32 0, i32 4
  %35 = load i32, ptr %34, align 4, !tbaa !64
  %36 = sitofp i32 %35 to float
  %37 = load ptr, ptr %2, align 8, !tbaa !4
  %38 = getelementptr inbounds nuw %struct.AVCodecContext, ptr %37, i32 0, i32 40
  %39 = load float, ptr %38, align 8, !tbaa !67
  %40 = call nsz float @llvm.fmuladd.f32(float %32, float %36, float %39)
  %41 = fpext nsz float %40 to double
  %42 = fadd nsz double %41, 5.000000e-01
  %43 = fptosi double %42 to i32
  %44 = call i32 @av_clip_c(i32 noundef %43, i32 noundef 0, i32 noundef 255) #8
  %45 = load ptr, ptr %4, align 8, !tbaa !58
  %46 = getelementptr inbounds nuw %struct.VAAPIEncodeVP9Context, ptr %45, i32 0, i32 3
  store i32 %44, ptr %46, align 8, !tbaa !68
  br label %53

47:                                               ; preds = %17
  %48 = load ptr, ptr %4, align 8, !tbaa !58
  %49 = getelementptr inbounds nuw %struct.VAAPIEncodeVP9Context, ptr %48, i32 0, i32 4
  %50 = load i32, ptr %49, align 4, !tbaa !64
  %51 = load ptr, ptr %4, align 8, !tbaa !58
  %52 = getelementptr inbounds nuw %struct.VAAPIEncodeVP9Context, ptr %51, i32 0, i32 3
  store i32 %50, ptr %52, align 8, !tbaa !68
  br label %53

53:                                               ; preds = %47, %29
  %54 = load ptr, ptr %2, align 8, !tbaa !4
  %55 = getelementptr inbounds nuw %struct.AVCodecContext, ptr %54, i32 0, i32 37
  %56 = load float, ptr %55, align 4, !tbaa !69
  %57 = fpext nsz float %56 to double
  %58 = fcmp nsz ogt double %57, 0.000000e+00
  br i1 %58, label %59, label %77

59:                                               ; preds = %53
  %60 = load ptr, ptr %2, align 8, !tbaa !4
  %61 = getelementptr inbounds nuw %struct.AVCodecContext, ptr %60, i32 0, i32 37
  %62 = load float, ptr %61, align 4, !tbaa !69
  %63 = load ptr, ptr %4, align 8, !tbaa !58
  %64 = getelementptr inbounds nuw %struct.VAAPIEncodeVP9Context, ptr %63, i32 0, i32 4
  %65 = load i32, ptr %64, align 4, !tbaa !64
  %66 = sitofp i32 %65 to float
  %67 = load ptr, ptr %2, align 8, !tbaa !4
  %68 = getelementptr inbounds nuw %struct.AVCodecContext, ptr %67, i32 0, i32 38
  %69 = load float, ptr %68, align 8, !tbaa !70
  %70 = call nsz float @llvm.fmuladd.f32(float %62, float %66, float %69)
  %71 = fpext nsz float %70 to double
  %72 = fadd nsz double %71, 5.000000e-01
  %73 = fptosi double %72 to i32
  %74 = call i32 @av_clip_c(i32 noundef %73, i32 noundef 0, i32 noundef 255) #8
  %75 = load ptr, ptr %4, align 8, !tbaa !58
  %76 = getelementptr inbounds nuw %struct.VAAPIEncodeVP9Context, ptr %75, i32 0, i32 5
  store i32 %74, ptr %76, align 8, !tbaa !71
  br label %83

77:                                               ; preds = %53
  %78 = load ptr, ptr %4, align 8, !tbaa !58
  %79 = getelementptr inbounds nuw %struct.VAAPIEncodeVP9Context, ptr %78, i32 0, i32 4
  %80 = load i32, ptr %79, align 4, !tbaa !64
  %81 = load ptr, ptr %4, align 8, !tbaa !58
  %82 = getelementptr inbounds nuw %struct.VAAPIEncodeVP9Context, ptr %81, i32 0, i32 5
  store i32 %80, ptr %82, align 8, !tbaa !71
  br label %83

83:                                               ; preds = %77, %59
  br label %91

84:                                               ; preds = %1
  %85 = load ptr, ptr %4, align 8, !tbaa !58
  %86 = getelementptr inbounds nuw %struct.VAAPIEncodeVP9Context, ptr %85, i32 0, i32 5
  store i32 100, ptr %86, align 8, !tbaa !71
  %87 = load ptr, ptr %4, align 8, !tbaa !58
  %88 = getelementptr inbounds nuw %struct.VAAPIEncodeVP9Context, ptr %87, i32 0, i32 4
  store i32 100, ptr %88, align 4, !tbaa !64
  %89 = load ptr, ptr %4, align 8, !tbaa !58
  %90 = getelementptr inbounds nuw %struct.VAAPIEncodeVP9Context, ptr %89, i32 0, i32 3
  store i32 100, ptr %90, align 8, !tbaa !68
  br label %91

91:                                               ; preds = %84, %83
  %92 = load ptr, ptr %3, align 8, !tbaa !29
  %93 = getelementptr inbounds nuw %struct.VAAPIEncodeContext, ptr %92, i32 0, i32 44
  store i32 255, ptr %93, align 4, !tbaa !72
  call void @llvm.lifetime.end.p0(i64 8, ptr %4) #7
  call void @llvm.lifetime.end.p0(i64 8, ptr %3) #7
  ret i32 0
}