; Function Attrs: cold mustprogress nofree norecurse nosync nounwind optsize willreturn memory(readwrite, inaccessiblemem: none) uwtable
define internal noundef i32 @vaapi_encode_vp9_configure(ptr noundef readonly captures(none) %0) #3 {
  %2 = getelementptr inbounds nuw i8, ptr %0, i64 32
  %3 = load ptr, ptr %2, align 8, !tbaa !4
  %4 = getelementptr inbounds nuw i8, ptr %3, i64 1232
  %5 = load ptr, ptr %4, align 8, !tbaa !52
  %6 = getelementptr inbounds nuw i8, ptr %5, i64 32
  %7 = load i32, ptr %6, align 8, !tbaa !53
  %.not = icmp eq i32 %7, 0
  br i1 %.not, label %42, label %8

8:                                                ; preds = %1
  %9 = getelementptr inbounds nuw i8, ptr %3, i64 1240
  %10 = load i32, ptr %9, align 8, !tbaa !55
  %11 = tail call i32 @llvm.smax.i32(i32 %10, i32 0)
  %12 = tail call i32 @llvm.umin.i32(i32 %11, i32 255)
  %13 = getelementptr inbounds nuw i8, ptr %3, i64 1988
  store i32 %12, ptr %13, align 4, !tbaa !56
  %14 = getelementptr inbounds nuw i8, ptr %0, i64 212
  %15 = load float, ptr %14, align 4, !tbaa !58
  %16 = fcmp nsz ogt float %15, 0.000000e+00
  br i1 %16, label %17, label %27

17:                                               ; preds = %8
  %18 = uitofp nneg i32 %12 to float
  %19 = getelementptr inbounds nuw i8, ptr %0, i64 216
  %20 = load float, ptr %19, align 8, !tbaa !59
  %21 = tail call nsz float @llvm.fmuladd.f32(float %15, float %18, float %20)
  %22 = fpext nsz float %21 to double
  %23 = fadd nsz double %22, 5.000000e-01
  %24 = fptosi double %23 to i32
  %25 = tail call i32 @llvm.smax.i32(i32 %24, i32 0)
  %26 = tail call i32 @llvm.umin.i32(i32 %25, i32 255)
  br label %27

27:                                               ; preds = %8, %17
  %.0.i.sink = phi i32 [ %26, %17 ], [ %12, %8 ]
  %28 = getelementptr inbounds nuw i8, ptr %3, i64 1984
  store i32 %.0.i.sink, ptr %28, align 8, !tbaa !60
  %29 = getelementptr inbounds nuw i8, ptr %0, i64 204
  %30 = load float, ptr %29, align 4, !tbaa !61
  %31 = fcmp nsz ogt float %30, 0.000000e+00
  br i1 %31, label %32, label %45

32:                                               ; preds = %27
  %33 = uitofp nneg i32 %12 to float
  %34 = getelementptr inbounds nuw i8, ptr %0, i64 208
  %35 = load float, ptr %34, align 8, !tbaa !62
  %36 = tail call nsz float @llvm.fmuladd.f32(float %30, float %33, float %35)
  %37 = fpext nsz float %36 to double
  %38 = fadd nsz double %37, 5.000000e-01
  %39 = fptosi double %38 to i32
  %40 = tail call i32 @llvm.smax.i32(i32 %39, i32 0)
  %41 = tail call i32 @llvm.umin.i32(i32 %40, i32 255)
  br label %45

42:                                               ; preds = %1
  %43 = getelementptr inbounds nuw i8, ptr %3, i64 1992
  store i32 100, ptr %43, align 8, !tbaa !63
  %44 = getelementptr inbounds nuw i8, ptr %3, i64 1988
  store i32 100, ptr %44, align 4, !tbaa !56
  br label %45

45:                                               ; preds = %27, %32, %42
  %.sink28 = phi i64 [ 1992, %32 ], [ 1984, %42 ], [ 1992, %27 ]
  %.sink = phi i32 [ %41, %32 ], [ 100, %42 ], [ %12, %27 ]
  %46 = getelementptr inbounds nuw i8, ptr %3, i64 %.sink28
  store i32 %.sink, ptr %46, align 8, !tbaa !64
  %47 = getelementptr inbounds nuw i8, ptr %3, i64 1956
  store i32 255, ptr %47, align 4, !tbaa !65
  ret i32 0
}